; Function Attrs: nounwind uwtable
define hidden range(i32 -1, 2) i32 @_PyDict_ContainsId(ptr noundef readonly captures(none) %0, ptr noundef %1) local_unnamed_addr #0 {
  %3 = alloca ptr, align 8
  %4 = tail call ptr @_PyUnicode_FromId(ptr noundef %1) #23
  %5 = icmp eq ptr %4, null
  br i1 %5, label %PyDict_Contains.exit, label %6

6:                                                ; preds = %2
  %7 = getelementptr i8, ptr %4, i64 8
  %.val.i.i = load ptr, ptr %7, align 8, !tbaa !25
  %.not.i.i = icmp eq ptr %.val.i.i, @PyUnicode_Type
  br i1 %.not.i.i, label %8, label %_PyObject_HashFast.exit.i

8:                                                ; preds = %6
  %9 = getelementptr inbounds nuw i8, ptr %4, i64 24
  %10 = load i64, ptr %9, align 8, !tbaa !55
  %.not7.not.i.i = icmp eq i64 %10, -1
  br i1 %.not7.not.i.i, label %_PyObject_HashFast.exit.i, label %_PyObject_HashFast.exit.thread.i

_PyObject_HashFast.exit.i:                        ; preds = %8, %6
  %11 = tail call i64 @PyObject_Hash(ptr noundef nonnull %4) #23
  %12 = icmp eq i64 %11, -1
  br i1 %12, label %PyDict_Contains.exit, label %_PyObject_HashFast.exit.thread.i

_PyObject_HashFast.exit.thread.i:                 ; preds = %_PyObject_HashFast.exit.i, %8
  %.1.i7.i = phi i64 [ %11, %_PyObject_HashFast.exit.i ], [ %10, %8 ]
  call void @llvm.lifetime.start.p0(i64 8, ptr nonnull %3) #23
  %13 = call i64 @_Py_dict_lookup(ptr noundef readonly %0, ptr noundef nonnull %4, i64 noundef %.1.i7.i, ptr noundef nonnull %3)
  %14 = icmp eq i64 %13, -3
  br i1 %14, label %_PyDict_Contains_KnownHash.exit.i, label %15

15:                                               ; preds = %_PyObject_HashFast.exit.thread.i
  %16 = icmp ne i64 %13, -1
  %17 = load ptr, ptr %3, align 8
  %18 = icmp ne ptr %17, null
  %or.cond.i.i = select i1 %16, i1 %18, i1 false
  %..i.i = zext i1 %or.cond.i.i to i32
  br label %_PyDict_Contains_KnownHash.exit.i

_PyDict_Contains_KnownHash.exit.i:                ; preds = %15, %_PyObject_HashFast.exit.thread.i
  %.0.i.i = phi i32 [ -1, %_PyObject_HashFast.exit.thread.i ], [ %..i.i, %15 ]
  call void @llvm.lifetime.end.p0(i64 8, ptr nonnull %3) #23
  br label %PyDict_Contains.exit

PyDict_Contains.exit:                             ; preds = %_PyDict_Contains_KnownHash.exit.i, %_PyObject_HashFast.exit.i, %2
  %.0 = phi i32 [ -1, %2 ], [ %.0.i.i, %_PyDict_Contains_KnownHash.exit.i ], [ -1, %_PyObject_HashFast.exit.i ]
  ret i32 %.0
}